; Function Attrs: mustprogress norecurse nounwind uwtable
define dso_local noundef i32 @main(i32 noundef %0, ptr noundef %1) local_unnamed_addr #3 {
  %3 = alloca i32, align 4
  %4 = alloca ptr, align 8
  %5 = alloca %"class.llvm::InitLLVM", align 8
  %6 = alloca %"class.std::function.29", align 8
  store i32 %0, ptr %3, align 4
  store ptr %1, ptr %4, align 8
  call void @_ZN4llvm8InitLLVMC2ERiRPPKcb(ptr noundef nonnull align 8 dereferenceable(152) %5, ptr noundef nonnull align 4 dereferenceable(4) %3, ptr noundef nonnull align 8 dereferenceable(8) %4, i1 noundef zeroext true) #13
  %7 = load i32, ptr %3, align 4
  %8 = load ptr, ptr %4, align 8
  %9 = call noundef zeroext i1 @_ZN4llvm2cl23ParseCommandLineOptionsEiPKPKcNS_9StringRefEPNS_11raw_ostreamES2_b(i32 noundef %7, ptr noundef %8, ptr nonnull @.str.4, i64 0, ptr noundef null, ptr noundef null, i1 noundef zeroext false) #13
  %10 = load ptr, ptr %4, align 8
  %11 = load ptr, ptr %10, align 8
  call void @llvm.memset.p0.i64(ptr noundef nonnull align 8 dereferenceable(32) %6, i8 0, i64 32, i1 false)
  %12 = call noundef i32 @_ZN4llvm12TableGenMainEPKcSt8functionIFbRNS_11raw_ostreamERNS_12RecordKeeperEEE(ptr noundef %11, ptr noundef nonnull %6) #13
  %13 = getelementptr inbounds nuw i8, ptr %6, i64 16
  %14 = load ptr, ptr %13, align 8
  %.not.i.i = icmp eq ptr %14, null
  br i1 %.not.i.i, label %_ZNSt8functionIFbRN4llvm11raw_ostreamERNS0_12RecordKeeperEEED2Ev.exit, label %15

15:                                               ; preds = %2
  %16 = call noundef zeroext i1 %14(ptr noundef nonnull align 8 dereferenceable(32) %6, ptr noundef nonnull align 8 dereferenceable(32) %6, i32 noundef 3) #13
  br label %_ZNSt8functionIFbRN4llvm11raw_ostreamERNS0_12RecordKeeperEEED2Ev.exit

_ZNSt8functionIFbRN4llvm11raw_ostreamERNS0_12RecordKeeperEEED2Ev.exit: ; preds = %2, %15
  call void @_ZN4llvm8InitLLVMD1Ev(ptr noundef nonnull align 8 dereferenceable(152) %5) #13
  ret i32 %12
}